; ModuleID = '35/1484.c'
source_filename = "35/1484.c"
target datalayout = "e-m:e-p270:32:32-p271:32:32-p272:64:64-i64:64-f80:128-n8:16:32:64-S128"
target triple = "x86_64-pc-linux-gnu"

@.str = private unnamed_addr constant [6 x i8] c"%d,%d\00", align 1
@.str.1 = private unnamed_addr constant [3 x i8] c"%d\00", align 1
@.str.2 = private unnamed_addr constant [3 x i8] c"No\00", align 1
@.str.3 = private unnamed_addr constant [6 x i8] c"%d+%d\00", align 1

; Function Attrs: noinline nounwind uwtable
define dso_local i32 @search([8 x i32]* %0, i32 %1, i32 %2) #0 {
  %4 = alloca i32, align 4
  %5 = alloca [8 x i32]*, align 8
  %6 = alloca i32, align 4
  %7 = alloca i32, align 4
  %8 = alloca i32, align 4
  %9 = alloca i32, align 4
  %10 = alloca i32, align 4
  %11 = alloca i32, align 4
  %12 = alloca i32, align 4
  %13 = alloca i32, align 4
  %14 = alloca i32, align 4
  store [8 x i32]* %0, [8 x i32]** %5, align 8
  store i32 %1, i32* %6, align 4
  store i32 %2, i32* %7, align 4
  store i32 0, i32* %11, align 4
  store i32 0, i32* %12, align 4
  store i32 0, i32* %8, align 4
  br label %15

15:                                               ; preds = %91, %3
  %16 = load i32, i32* %8, align 4
  %17 = load i32, i32* %6, align 4
  %18 = sub nsw i32 %17, 1
  %19 = icmp sle i32 %16, %18
  br i1 %19, label %20, label %94

20:                                               ; preds = %15
  store i32 0, i32* %9, align 4
  br label %21

21:                                               ; preds = %54, %20
  %22 = load i32, i32* %9, align 4
  %23 = load i32, i32* %7, align 4
  %24 = sub nsw i32 %23, 1
  %25 = icmp sle i32 %22, %24
  br i1 %25, label %26, label %57

26:                                               ; preds = %21
  %27 = load [8 x i32]*, [8 x i32]** %5, align 8
  %28 = load i32, i32* %8, align 4
  %29 = sext i32 %28 to i64
  %30 = getelementptr inbounds [8 x i32], [8 x i32]* %27, i64 %29
  %31 = getelementptr inbounds [8 x i32], [8 x i32]* %30, i64 0, i64 0
  %32 = load i32, i32* %31, align 4
  store i32 %32, i32* %13, align 4
  %33 = load i32, i32* %13, align 4
  %34 = load [8 x i32]*, [8 x i32]** %5, align 8
  %35 = load i32, i32* %8, align 4
  %36 = sext i32 %35 to i64
  %37 = getelementptr inbounds [8 x i32], [8 x i32]* %34, i64 %36
  %38 = load i32, i32* %9, align 4
  %39 = sext i32 %38 to i64
  %40 = getelementptr inbounds [8 x i32], [8 x i32]* %37, i64 0, i64 %39
  %41 = load i32, i32* %40, align 4
  %42 = icmp slt i32 %33, %41
  br i1 %42, label %43, label %53

43:                                               ; preds = %26
  %44 = load [8 x i32]*, [8 x i32]** %5, align 8
  %45 = load i32, i32* %8, align 4
  %46 = sext i32 %45 to i64
  %47 = getelementptr inbounds [8 x i32], [8 x i32]* %44, i64 %46
  %48 = load i32, i32* %9, align 4
  %49 = sext i32 %48 to i64
  %50 = getelementptr inbounds [8 x i32], [8 x i32]* %47, i64 0, i64 %49
  %51 = load i32, i32* %50, align 4
  store i32 %51, i32* %13, align 4
  %52 = load i32, i32* %9, align 4
  store i32 %52, i32* %12, align 4
  br label %53

53:                                               ; preds = %43, %26
  br label %54

54:                                               ; preds = %53
  %55 = load i32, i32* %9, align 4
  %56 = add nsw i32 %55, 1
  store i32 %56, i32* %9, align 4
  br label %21

57:                                               ; preds = %21
  store i32 0, i32* %10, align 4
  br label %58

58:                                               ; preds = %78, %57
  %59 = load i32, i32* %10, align 4
  %60 = load i32, i32* %6, align 4
  %61 = sub nsw i32 %60, 1
  %62 = icmp sle i32 %59, %61
  br i1 %62, label %63, label %81

63:                                               ; preds = %58
  %64 = load i32, i32* %13, align 4
  %65 = load [8 x i32]*, [8 x i32]** %5, align 8
  %66 = load i32, i32* %10, align 4
  %67 = sext i32 %66 to i64
  %68 = getelementptr inbounds [8 x i32], [8 x i32]* %65, i64 %67
  %69 = load i32, i32* %12, align 4
  %70 = sext i32 %69 to i64
  %71 = getelementptr inbounds [8 x i32], [8 x i32]* %68, i64 0, i64 %70
  %72 = load i32, i32* %71, align 4
  %73 = icmp sgt i32 %64, %72
  br i1 %73, label %74, label %75

74:                                               ; preds = %63
  store i32 -1, i32* %11, align 4
  br label %81

75:                                               ; preds = %63
  %76 = load i32, i32* %8, align 4
  store i32 %76, i32* %11, align 4
  br label %77

77:                                               ; preds = %75
  br label %78

78:                                               ; preds = %77
  %79 = load i32, i32* %10, align 4
  %80 = add nsw i32 %79, 1
  store i32 %80, i32* %10, align 4
  br label %58

81:                                               ; preds = %74, %58
  %82 = load i32, i32* %11, align 4
  %83 = mul nsw i32 10, %82
  %84 = load i32, i32* %12, align 4
  %85 = add nsw i32 %83, %84
  store i32 %85, i32* %14, align 4
  %86 = load i32, i32* %14, align 4
  %87 = icmp sge i32 %86, 0
  br i1 %87, label %88, label %90

88:                                               ; preds = %81
  %89 = load i32, i32* %14, align 4
  store i32 %89, i32* %4, align 4
  br label %95

90:                                               ; preds = %81
  br label %91

91:                                               ; preds = %90
  %92 = load i32, i32* %8, align 4
  %93 = add nsw i32 %92, 1
  store i32 %93, i32* %8, align 4
  br label %15

94:                                               ; preds = %15
  store i32 -1, i32* %4, align 4
  br label %95

95:                                               ; preds = %94, %88
  %96 = load i32, i32* %4, align 4
  ret i32 %96
}

; Function Attrs: noinline nounwind uwtable
define dso_local i32 @main() #0 {
  %1 = alloca i32, align 4
  %2 = alloca i32, align 4
  %3 = alloca i32, align 4
  %4 = alloca i32, align 4
  %5 = alloca i32, align 4
  %6 = alloca [8 x [8 x i32]], align 16
  %7 = alloca i32, align 4
  store i32 0, i32* %1, align 4
  %8 = call i32 (i8*, ...) @__isoc99_scanf(i8* getelementptr inbounds ([6 x i8], [6 x i8]* @.str, i64 0, i64 0), i32* %4, i32* %5)
  store i32 0, i32* %2, align 4
  br label %9

9:                                                ; preds = %32, %0
  %10 = load i32, i32* %2, align 4
  %11 = load i32, i32* %4, align 4
  %12 = sub nsw i32 %11, 1
  %13 = icmp sle i32 %10, %12
  br i1 %13, label %14, label %35

14:                                               ; preds = %9
  store i32 0, i32* %3, align 4
  br label %15

15:                                               ; preds = %28, %14
  %16 = load i32, i32* %3, align 4
  %17 = load i32, i32* %5, align 4
  %18 = sub nsw i32 %17, 1
  %19 = icmp sle i32 %16, %18
  br i1 %19, label %20, label %31

20:                                               ; preds = %15
  %21 = load i32, i32* %2, align 4
  %22 = sext i32 %21 to i64
  %23 = getelementptr inbounds [8 x [8 x i32]], [8 x [8 x i32]]* %6, i64 0, i64 %22
  %24 = load i32, i32* %3, align 4
  %25 = sext i32 %24 to i64
  %26 = getelementptr inbounds [8 x i32], [8 x i32]* %23, i64 0, i64 %25
  %27 = call i32 (i8*, ...) @__isoc99_scanf(i8* getelementptr inbounds ([3 x i8], [3 x i8]* @.str.1, i64 0, i64 0), i32* %26)
  br label %28

28:                                               ; preds = %20
  %29 = load i32, i32* %3, align 4
  %30 = add nsw i32 %29, 1
  store i32 %30, i32* %3, align 4
  br label %15

31:                                               ; preds = %15
  br label %32

32:                                               ; preds = %31
  %33 = load i32, i32* %2, align 4
  %34 = add nsw i32 %33, 1
  store i32 %34, i32* %2, align 4
  br label %9

35:                                               ; preds = %9
  %36 = getelementptr inbounds [8 x [8 x i32]], [8 x [8 x i32]]* %6, i64 0, i64 0
  %37 = load i32, i32* %4, align 4
  %38 = load i32, i32* %5, align 4
  %39 = call i32 @search([8 x i32]* %36, i32 %37, i32 %38)
  store i32 %39, i32* %7, align 4
  %40 = load i32, i32* %7, align 4
  %41 = icmp slt i32 %40, 0
  br i1 %41, label %42, label %44

42:                                               ; preds = %35
  %43 = call i32 (i8*, ...) @printf(i8* getelementptr inbounds ([3 x i8], [3 x i8]* @.str.2, i64 0, i64 0))
  br label %54

44:                                               ; preds = %35
  %45 = load i32, i32* %7, align 4
  %46 = srem i32 %45, 10
  store i32 %46, i32* %2, align 4
  %47 = load i32, i32* %7, align 4
  %48 = load i32, i32* %2, align 4
  %49 = sub nsw i32 %47, %48
  %50 = sdiv i32 %49, 10
  store i32 %50, i32* %3, align 4
  %51 = load i32, i32* %3, align 4
  %52 = load i32, i32* %2, align 4
  %53 = call i32 (i8*, ...) @printf(i8* getelementptr inbounds ([6 x i8], [6 x i8]* @.str.3, i64 0, i64 0), i32 %51, i32 %52)
  br label %54

54:                                               ; preds = %44, %42
  %55 = load i32, i32* %1, align 4
  ret i32 %55
}

declare dso_local i32 @__isoc99_scanf(i8*, ...) #1

declare dso_local i32 @printf(i8*, ...) #1


!llvm.module.flags = !{!0}
!llvm.ident = !{!1}

!0 = !{i32 1, !"wchar_size", i32 4}
!1 = !{!"clang version 10.0.0-4ubuntu1 "}
